; Function Attrs: nounwind uwtable
define range(i32 0, 2) i32 @ossl_rio_poll_builder_add_fd(ptr noundef captures(none) %0, i32 noundef %1, i32 noundef %2, i32 noundef %3) local_unnamed_addr #1 {
  %5 = load ptr, ptr %0, align 8, !tbaa !3
  %.not = icmp eq ptr %5, null
  %6 = getelementptr inbounds nuw i8, ptr %0, i64 8
  %7 = select i1 %.not, ptr %6, ptr %5
  %8 = icmp slt i32 %1, 0
  br i1 %8, label %rpb_ensure_alloc.exit.thread, label %.preheader

.preheader:                                       ; preds = %4
  %9 = getelementptr inbounds nuw i8, ptr %0, i64 264
  %10 = load i64, ptr %9, align 8, !tbaa !10
  %.not46 = icmp eq i64 %10, 0
  br i1 %.not46, label %._crit_edge, label %.lr.ph

.lr.ph:                                           ; preds = %.preheader, %15
  %.03043 = phi i64 [ %16, %15 ], [ 0, %.preheader ]
  %11 = getelementptr inbounds nuw %struct.pollfd, ptr %7, i64 %.03043
  %12 = load i32, ptr %11, align 4, !tbaa !12
  %13 = icmp eq i32 %12, -1
  %14 = icmp eq i32 %12, %1
  %or.cond = or i1 %13, %14
  br i1 %or.cond, label %._crit_edge, label %15

15:                                               ; preds = %.lr.ph
  %16 = add nuw i64 %.03043, 1
  %exitcond.not = icmp eq i64 %16, %10
  br i1 %exitcond.not, label %._crit_edge, label %.lr.ph, !llvm.loop !16

._crit_edge:                                      ; preds = %15, %.lr.ph, %.preheader
  %.030.lcssa = phi i64 [ 0, %.preheader ], [ %.03043, %.lr.ph ], [ %10, %15 ]
  %17 = getelementptr inbounds nuw i8, ptr %0, i64 272
  %18 = load i64, ptr %17, align 8, !tbaa !11
  %.not36 = icmp ult i64 %.030.lcssa, %18
  br i1 %.not36, label %rpb_ensure_alloc.exit, label %19

19:                                               ; preds = %._crit_edge
  %20 = shl i64 %18, 1
  %.not.i = icmp sgt i64 %18, 0
  br i1 %.not.i, label %21, label %rpb_ensure_alloc.exit

21:                                               ; preds = %19
  %22 = icmp ugt i64 %20, 2305843009213693951
  br i1 %22, label %rpb_ensure_alloc.exit.thread, label %23

23:                                               ; preds = %21
  %.0.i19.i = shl i64 %18, 4
  %24 = tail call ptr @CRYPTO_realloc(ptr noundef %5, i64 noundef %.0.i19.i, ptr noundef nonnull @.str, i32 noundef 56) #6
  %25 = icmp eq ptr %24, null
  br i1 %25, label %rpb_ensure_alloc.exit.thread, label %26

26:                                               ; preds = %23
  %27 = load ptr, ptr %0, align 8, !tbaa !3
  %28 = icmp eq ptr %27, null
  br i1 %28, label %29, label %30

29:                                               ; preds = %26
  tail call void @llvm.memcpy.p0.p0.i64(ptr noundef nonnull align 4 dereferenceable(256) %24, ptr noundef nonnull align 8 dereferenceable(256) %6, i64 256, i1 false)
  br label %30

30:                                               ; preds = %29, %26
  store ptr %24, ptr %0, align 8, !tbaa !3
  store i64 %20, ptr %17, align 8, !tbaa !11
  %.pre = load i64, ptr %9, align 8, !tbaa !10
  br label %rpb_ensure_alloc.exit

rpb_ensure_alloc.exit:                            ; preds = %30, %19, %._crit_edge
  %31 = phi i64 [ %.pre, %30 ], [ %10, %19 ], [ %10, %._crit_edge ]
  %32 = getelementptr inbounds nuw %struct.pollfd, ptr %7, i64 %.030.lcssa
  store i32 %1, ptr %32, align 4, !tbaa !12
  %33 = getelementptr inbounds nuw i8, ptr %32, i64 4
  %.not38 = icmp ne i32 %2, 0
  %spec.select = zext i1 %.not38 to i16
  %.not39 = icmp eq i32 %3, 0
  %34 = or disjoint i16 %spec.select, 4
  %spec.select42 = select i1 %.not39, i16 %spec.select, i16 %34
  store i16 %spec.select42, ptr %33, align 4, !tbaa !18
  %35 = icmp eq i64 %.030.lcssa, %31
  br i1 %35, label %36, label %rpb_ensure_alloc.exit.thread

36:                                               ; preds = %rpb_ensure_alloc.exit
  %37 = add i64 %.030.lcssa, 1
  store i64 %37, ptr %9, align 8, !tbaa !10
  br label %rpb_ensure_alloc.exit.thread

rpb_ensure_alloc.exit.thread:                     ; preds = %21, %23, %rpb_ensure_alloc.exit, %36, %4
  %.0 = phi i32 [ 0, %4 ], [ 1, %36 ], [ 1, %rpb_ensure_alloc.exit ], [ 0, %23 ], [ 0, %21 ]
  ret i32 %.0
}